target datalayout = "e-m:e-p270:32:32-p271:32:32-p272:64:64-i64:64-i128:128-f80:128-n8:16:32:64-S128"
target triple = "x86_64-unknown-linux-gnu"

%"class.fmt::v10::file" = type { i32 }
%class.output_redirect = type { ptr, %"class.fmt::v10::file", %"class.fmt::v10::file" }
%"class.fmt::v10::basic_format_string" = type { %"class.fmt::v10::basic_string_view" }
%"class.fmt::v10::basic_string_view" = type { ptr, i64 }
%"class.std::system_error" = type { %"class.std::runtime_error", %"class.std::error_code" }
%"class.std::runtime_error" = type { %"class.std::exception", %"struct.std::__cow_string" }
%"class.std::exception" = type { ptr }
%"struct.std::__cow_string" = type { %union.anon }
%union.anon = type { ptr }
%"class.std::error_code" = type { i32, ptr }

@.str = private unnamed_addr constant [20 x i8] c"cannot flush stream\00", align 1
@_ZTISt12system_error = external constant ptr

; Function Attrs: mustprogress nounwind uwtable
define linkonce_odr hidden noundef i64 @_ZNSt11char_traitsIcE6lengthEPKc(ptr noundef %__s) #5 comdat align 2 {
entry:
  %__s.addr = alloca ptr, align 8
  store ptr %__s, ptr %__s.addr, align 8
  %0 = load ptr, ptr %__s.addr, align 8
  %call = call i64 @strlen(ptr noundef %0) #3
  ret i64 %call
}

; Function Attrs: mustprogress uwtable
define hidden void @_ZN15output_redirect5flushEv(ptr noundef nonnull align 8 dereferenceable(16) %this) #4 align 2 personality ptr @__gxx_personality_v0 {
entry:
  %.addr.i = alloca ptr, align 8
  %this.addr.i8 = alloca ptr, align 8
  %s.addr.i9 = alloca ptr, align 8
  %this.addr.i = alloca ptr, align 8
  %s.addr.i = alloca ptr, align 8
  %this.addr = alloca ptr, align 8
  %result = alloca i32, align 4
  %agg.tmp = alloca %"class.fmt::v10::basic_format_string", align 8
  %exn.slot = alloca ptr, align 8
  %ehselector.slot = alloca i32, align 4
  store ptr %this, ptr %this.addr, align 8
  %this1 = load ptr, ptr %this.addr, align 8
  store i32 0, ptr %result, align 4
  br label %do.body

do.body:                                          ; preds = %land.end, %entry
  %file_ = getelementptr inbounds %class.output_redirect, ptr %this1, i32 0, i32 0
  %0 = load ptr, ptr %file_, align 8
  %call = call i32 @fflush(ptr noundef %0)
  store i32 %call, ptr %result, align 4
  br label %do.cond

do.cond:                                          ; preds = %do.body
  %1 = load i32, ptr %result, align 4
  %cmp = icmp eq i32 %1, -1
  br i1 %cmp, label %land.rhs, label %land.end

land.rhs:                                         ; preds = %do.cond
  %call2 = call ptr @__errno_location() #19
  %2 = load i32, ptr %call2, align 4
  %cmp3 = icmp eq i32 %2, 4
  br label %land.end

land.end:                                         ; preds = %land.rhs, %do.cond
  %3 = phi i1 [ false, %do.cond ], [ %cmp3, %land.rhs ]
  br i1 %3, label %do.body, label %do.end, !llvm.loop !5

do.end:                                           ; preds = %land.end
  %4 = load i32, ptr %result, align 4
  %cmp4 = icmp ne i32 %4, 0
  br i1 %cmp4, label %if.then, label %if.end

if.then:                                          ; preds = %do.end
  %exception = call ptr @__cxa_allocate_exception(i64 32) #3
  %call5 = call ptr @__errno_location() #19
  %5 = load i32, ptr %call5, align 4
  store ptr %agg.tmp, ptr %this.addr.i, align 8
  store ptr @.str, ptr %s.addr.i, align 8
  %this1.i = load ptr, ptr %this.addr.i, align 8
  %6 = load ptr, ptr %s.addr.i, align 8
  store ptr %this1.i, ptr %this.addr.i8, align 8
  store ptr %6, ptr %s.addr.i9, align 8
  %this1.i10 = load ptr, ptr %this.addr.i8, align 8
  %7 = load ptr, ptr %s.addr.i9, align 8
  store ptr %7, ptr %this1.i10, align 8
  %size_.i = getelementptr inbounds %"class.fmt::v10::basic_string_view", ptr %this1.i10, i32 0, i32 1
  %8 = load ptr, ptr %s.addr.i9, align 8
  %call.i = call noundef i64 @_ZNSt11char_traitsIcE6lengthEPKc(ptr noundef %8)
  store i64 %call.i, ptr %size_.i, align 8
  br label %_ZN3fmt3v1019basic_format_stringIcJEEC2IA20_cTnNSt9enable_ifIXsr3std14is_convertibleIRKT_NS0_17basic_string_viewIcEEEE5valueEiE4typeELi0EEES8_.exit

_ZN3fmt3v1019basic_format_stringIcJEEC2IA20_cTnNSt9enable_ifIXsr3std14is_convertibleIRKT_NS0_17basic_string_viewIcEEEE5valueEiE4typeELi0EEES8_.exit: ; preds = %if.then
  %9 = load ptr, ptr %s.addr.i, align 8
  store ptr %9, ptr %.addr.i, align 8
  br label %invoke.cont

invoke.cont:                                      ; preds = %_ZN3fmt3v1019basic_format_stringIcJEEC2IA20_cTnNSt9enable_ifIXsr3std14is_convertibleIRKT_NS0_17basic_string_viewIcEEEE5valueEiE4typeELi0EEES8_.exit
  %10 = getelementptr inbounds { ptr, i64 }, ptr %agg.tmp, i32 0, i32 0
  %11 = load ptr, ptr %10, align 8
  %12 = getelementptr inbounds { ptr, i64 }, ptr %agg.tmp, i32 0, i32 1
  %13 = load i64, ptr %12, align 8
  invoke void @_ZN3fmt3v1012system_errorIJEEESt12system_erroriNS0_19basic_format_stringIcJDpNS0_13type_identityIT_E4typeEEEEDpOS5_(ptr sret(%"class.std::system_error") align 8 %exception, i32 noundef %5, ptr %11, i64 %13)
          to label %invoke.cont6 unwind label %lpad

invoke.cont6:                                     ; preds = %invoke.cont
  call void @__cxa_throw(ptr %exception, ptr @_ZTISt12system_error, ptr @_ZNSt12system_errorD1Ev) #20
  unreachable

lpad:                                             ; preds = %invoke.cont
  %14 = landingpad { ptr, i32 }
          cleanup
  %15 = extractvalue { ptr, i32 } %14, 0
  store ptr %15, ptr %exn.slot, align 8
  %16 = extractvalue { ptr, i32 } %14, 1
  store i32 %16, ptr %ehselector.slot, align 4
  call void @__cxa_free_exception(ptr %exception) #3
  br label %eh.resume

if.end:                                           ; preds = %do.end
  ret void

eh.resume:                                        ; preds = %lpad
  %exn = load ptr, ptr %exn.slot, align 8
  %sel = load i32, ptr %ehselector.slot, align 4
  %lpad.val = insertvalue { ptr, i32 } poison, ptr %exn, 0
  %lpad.val7 = insertvalue { ptr, i32 } %lpad.val, i32 %sel, 1
  resume { ptr, i32 } %lpad.val7
}