; Function Attrs: mustprogress uwtable
define hidden void @_ZN15output_redirect5flushEv(ptr nocapture noundef nonnull readonly align 8 dereferenceable(16) %this) local_unnamed_addr #3 align 2 personality ptr @__gxx_personality_v0 {
entry:
  br label %do.body

do.body:                                          ; preds = %land.rhs, %entry
  %0 = load ptr, ptr %this, align 8
  %call = tail call i32 @fflush(ptr noundef %0)
  switch i32 %call, label %if.then [
    i32 -1, label %land.rhs
    i32 0, label %if.end
  ]

land.rhs:                                         ; preds = %do.body
  %call2 = tail call ptr @__errno_location() #26
  %1 = load i32, ptr %call2, align 4
  %cmp3 = icmp eq i32 %1, 4
  br i1 %cmp3, label %do.body, label %if.then, !llvm.loop !5

if.then:                                          ; preds = %land.rhs, %do.body
  %exception = tail call ptr @__cxa_allocate_exception(i64 32) #25
  %call5 = tail call ptr @__errno_location() #26
  %2 = load i32, ptr %call5, align 4
  invoke void @_ZN3fmt3v1012system_errorIJEEESt12system_erroriNS0_19basic_format_stringIcJDpNS0_13type_identityIT_E4typeEEEEDpOS5_(ptr sret(%"class.std::system_error") align 8 %exception, i32 noundef %2, ptr nonnull @.str, i64 19)
          to label %invoke.cont6 unwind label %lpad

invoke.cont6:                                     ; preds = %if.then
  tail call void @__cxa_throw(ptr %exception, ptr nonnull @_ZTISt12system_error, ptr nonnull @_ZNSt12system_errorD1Ev) #27
  unreachable

lpad:                                             ; preds = %if.then
  %3 = landingpad { ptr, i32 }
          cleanup
  tail call void @__cxa_free_exception(ptr %exception) #25
  resume { ptr, i32 } %3

if.end:                                           ; preds = %do.body
  ret void
}